target datalayout = "e-m:e-p270:32:32-p271:32:32-p272:64:64-i64:64-i128:128-f80:128-n8:16:32:64-S128"
target triple = "x86_64-pc-linux-gnu"

@g_assert_poison = external global ptr, align 8
@.str = private unnamed_addr constant [32 x i8] c"src/hotspot/share/c1/c1_LIR.cpp\00", align 1
@_type2aelembytes = external global [20 x i32], align 16

; Function Attrs: mustprogress nounwind uwtable
define linkonce_odr hidden noundef i32 @_Z15type2aelembytes9BasicTypeb(i8 noundef zeroext %0, i1 noundef zeroext %1) #1 comdat {
  %3 = alloca i8, align 1
  %4 = alloca i8, align 1
  store i8 %0, ptr %3, align 1
  %5 = zext i1 %1 to i8
  store i8 %5, ptr %4, align 1
  %6 = load i8, ptr %3, align 1
  %7 = zext i8 %6 to i64
  %8 = getelementptr inbounds [20 x i32], ptr @_type2aelembytes, i64 0, i64 %7
  %9 = load i32, ptr %8, align 4
  ret i32 %9
}

; Function Attrs: mustprogress nounwind uwtable
define hidden noundef i32 @_ZN11LIR_Address5scaleE9BasicType(i8 noundef zeroext %0) #1 align 2 {
  %2 = alloca i32, align 4
  %3 = alloca i8, align 1
  %4 = alloca i32, align 4
  store i8 %0, ptr %3, align 1
  %5 = load i8, ptr %3, align 1
  %6 = call noundef i32 @_Z15type2aelembytes9BasicTypeb(i8 noundef zeroext %5, i1 noundef zeroext false)
  store i32 %6, ptr %4, align 4
  %7 = load i32, ptr %4, align 4
  switch i32 %7, label %12 [
    i32 1, label %8
    i32 2, label %9
    i32 4, label %10
    i32 8, label %11
  ]

8:                                                ; preds = %1
  store i32 0, ptr %2, align 4
  br label %16

9:                                                ; preds = %1
  store i32 1, ptr %2, align 4
  br label %16

10:                                               ; preds = %1
  store i32 2, ptr %2, align 4
  br label %16

11:                                               ; preds = %1
  store i32 3, ptr %2, align 4
  br label %16

12:                                               ; preds = %1
  br label %13

13:                                               ; preds = %12
  %14 = load ptr, ptr @g_assert_poison, align 8
  store i8 88, ptr %14, align 1
  call void @_Z28report_should_not_reach_herePKci(ptr noundef @.str, i32 noundef 90) #6
  unreachable

15:                                               ; No predecessors!
  store i32 0, ptr %2, align 4
  br label %16

16:                                               ; preds = %15, %11, %10, %9, %8
  %17 = load i32, ptr %2, align 4
  ret i32 %17
}