; Function Attrs: mustprogress nounwind uwtable
define hidden noundef range(i32 0, 4) i32 @_ZN11LIR_Address5scaleE9BasicType(i8 noundef zeroext %0) local_unnamed_addr #1 align 2 {
  %2 = zext i8 %0 to i64
  %3 = getelementptr inbounds [20 x i32], ptr @_type2aelembytes, i64 0, i64 %2
  %4 = load i32, ptr %3, align 4
  %switch.tableidx = add i32 %4, -1
  %5 = icmp ult i32 %switch.tableidx, 8
  br i1 %5, label %switch.hole_check, label %6

6:                                                ; preds = %switch.hole_check, %1
  %7 = load ptr, ptr @g_assert_poison, align 8
  store i8 88, ptr %7, align 1
  tail call void @_Z28report_should_not_reach_herePKci(ptr noundef nonnull @.str, i32 noundef 90) #12
  unreachable

switch.hole_check:                                ; preds = %1
  %switch.maskindex = trunc nuw i32 %switch.tableidx to i8
  %switch.shifted = lshr i8 -117, %switch.maskindex
  %switch.lobit = trunc i8 %switch.shifted to i1
  br i1 %switch.lobit, label %switch.lookup, label %6

switch.lookup:                                    ; preds = %switch.hole_check
  %8 = zext nneg i32 %switch.tableidx to i64
  %switch.gep = getelementptr inbounds [8 x i32], ptr @switch.table._ZN11LIR_Address5scaleE9BasicType, i64 0, i64 %8
  %switch.load = load i32, ptr %switch.gep, align 4
  ret i32 %switch.load
}